; ModuleID = '37/588.cpp'
source_filename = "37/588.cpp"
target datalayout = "e-m:e-p270:32:32-p271:32:32-p272:64:64-i64:64-f80:128-n8:16:32:64-S128"
target triple = "x86_64-pc-linux-gnu"

%"class.std::ios_base::Init" = type { i8 }

@_ZStL8__ioinit = internal global %"class.std::ios_base::Init" zeroinitializer, align 1
@__dso_handle = external hidden global i8
@.str = private unnamed_addr constant [3 x i8] c"%d\00", align 1
@.str.1 = private unnamed_addr constant [3 x i8] c"%s\00", align 1
@.str.2 = private unnamed_addr constant [4 x i8] c"%c\0A\00", align 1
@.str.3 = private unnamed_addr constant [4 x i8] c"no\0A\00", align 1
@llvm.global_ctors = appending global [1 x { i32, void ()*, i8* }] [{ i32, void ()*, i8* } { i32 65535, void ()* @_GLOBAL__sub_I_588.cpp, i8* null }]

; Function Attrs: noinline uwtable
define internal void @__cxx_global_var_init() #0 section ".text.startup" {
  call void @_ZNSt8ios_base4InitC1Ev(%"class.std::ios_base::Init"* @_ZStL8__ioinit)
  %1 = call i32 @__cxa_atexit(void (i8*)* bitcast (void (%"class.std::ios_base::Init"*)* @_ZNSt8ios_base4InitD1Ev to void (i8*)*), i8* getelementptr inbounds (%"class.std::ios_base::Init", %"class.std::ios_base::Init"* @_ZStL8__ioinit, i32 0, i32 0), i8* @__dso_handle) #3
  ret void
}

declare dso_local void @_ZNSt8ios_base4InitC1Ev(%"class.std::ios_base::Init"*) unnamed_addr #1

; Function Attrs: nounwind
declare dso_local void @_ZNSt8ios_base4InitD1Ev(%"class.std::ios_base::Init"*) unnamed_addr #2

; Function Attrs: nounwind
declare dso_local i32 @__cxa_atexit(void (i8*)*, i8*, i8*) #3

; Function Attrs: noinline norecurse uwtable
define dso_local i32 @main() #4 {
  %1 = alloca i32, align 4
  %2 = alloca i32, align 4
  %3 = alloca i32, align 4
  %4 = alloca i32, align 4
  %5 = alloca [26 x i32], align 16
  %6 = alloca [1000001 x i8], align 16
  %7 = alloca i32, align 4
  store i32 0, i32* %1, align 4
  %8 = call i32 (i8*, ...) @__isoc99_scanf(i8* getelementptr inbounds ([3 x i8], [3 x i8]* @.str, i64 0, i64 0), i32* %2)
  store i32 0, i32* %3, align 4
  br label %9

9:                                                ; preds = %72, %0
  %10 = load i32, i32* %3, align 4
  %11 = load i32, i32* %2, align 4
  %12 = icmp slt i32 %10, %11
  br i1 %12, label %13, label %75

13:                                               ; preds = %9
  %14 = bitcast [26 x i32]* %5 to i8*
  call void @llvm.memset.p0i8.i64(i8* align 16 %14, i8 0, i64 104, i1 false)
  %15 = getelementptr inbounds [1000001 x i8], [1000001 x i8]* %6, i64 0, i64 0
  %16 = call i32 (i8*, ...) @__isoc99_scanf(i8* getelementptr inbounds ([3 x i8], [3 x i8]* @.str.1, i64 0, i64 0), i8* %15)
  %17 = getelementptr inbounds [1000001 x i8], [1000001 x i8]* %6, i64 0, i64 0
  %18 = call i64 @strlen(i8* %17) #7
  %19 = trunc i64 %18 to i32
  store i32 %19, i32* %7, align 4
  store i32 0, i32* %4, align 4
  br label %20

20:                                               ; preds = %35, %13
  %21 = load i32, i32* %4, align 4
  %22 = load i32, i32* %7, align 4
  %23 = icmp slt i32 %21, %22
  br i1 %23, label %24, label %38

24:                                               ; preds = %20
  %25 = load i32, i32* %4, align 4
  %26 = sext i32 %25 to i64
  %27 = getelementptr inbounds [1000001 x i8], [1000001 x i8]* %6, i64 0, i64 %26
  %28 = load i8, i8* %27, align 1
  %29 = sext i8 %28 to i32
  %30 = sub nsw i32 %29, 97
  %31 = sext i32 %30 to i64
  %32 = getelementptr inbounds [26 x i32], [26 x i32]* %5, i64 0, i64 %31
  %33 = load i32, i32* %32, align 4
  %34 = add nsw i32 %33, 1
  store i32 %34, i32* %32, align 4
  br label %35

35:                                               ; preds = %24
  %36 = load i32, i32* %4, align 4
  %37 = add nsw i32 %36, 1
  store i32 %37, i32* %4, align 4
  br label %20

38:                                               ; preds = %20
  store i32 0, i32* %4, align 4
  br label %39

39:                                               ; preds = %62, %38
  %40 = load i32, i32* %4, align 4
  %41 = load i32, i32* %7, align 4
  %42 = icmp slt i32 %40, %41
  br i1 %42, label %43, label %65

43:                                               ; preds = %39
  %44 = load i32, i32* %4, align 4
  %45 = sext i32 %44 to i64
  %46 = getelementptr inbounds [1000001 x i8], [1000001 x i8]* %6, i64 0, i64 %45
  %47 = load i8, i8* %46, align 1
  %48 = sext i8 %47 to i32
  %49 = sub nsw i32 %48, 97
  %50 = sext i32 %49 to i64
  %51 = getelementptr inbounds [26 x i32], [26 x i32]* %5, i64 0, i64 %50
  %52 = load i32, i32* %51, align 4
  %53 = icmp eq i32 %52, 1
  br i1 %53, label %54, label %61

54:                                               ; preds = %43
  %55 = load i32, i32* %4, align 4
  %56 = sext i32 %55 to i64
  %57 = getelementptr inbounds [1000001 x i8], [1000001 x i8]* %6, i64 0, i64 %56
  %58 = load i8, i8* %57, align 1
  %59 = sext i8 %58 to i32
  %60 = call i32 (i8*, ...) @printf(i8* getelementptr inbounds ([4 x i8], [4 x i8]* @.str.2, i64 0, i64 0), i32 %59)
  br label %65

61:                                               ; preds = %43
  br label %62

62:                                               ; preds = %61
  %63 = load i32, i32* %4, align 4
  %64 = add nsw i32 %63, 1
  store i32 %64, i32* %4, align 4
  br label %39

65:                                               ; preds = %54, %39
  %66 = load i32, i32* %4, align 4
  %67 = load i32, i32* %7, align 4
  %68 = icmp eq i32 %66, %67
  br i1 %68, label %69, label %71

69:                                               ; preds = %65
  %70 = call i32 (i8*, ...) @printf(i8* getelementptr inbounds ([4 x i8], [4 x i8]* @.str.3, i64 0, i64 0))
  br label %71

71:                                               ; preds = %69, %65
  br label %72

72:                                               ; preds = %71
  %73 = load i32, i32* %3, align 4
  %74 = add nsw i32 %73, 1
  store i32 %74, i32* %3, align 4
  br label %9

75:                                               ; preds = %9
  %76 = load i32, i32* %1, align 4
  ret i32 %76
}

declare dso_local i32 @__isoc99_scanf(i8*, ...) #1

; Function Attrs: argmemonly nounwind willreturn
declare void @llvm.memset.p0i8.i64(i8* nocapture writeonly, i8, i64, i1 immarg) #5

; Function Attrs: nounwind readonly
declare dso_local i64 @strlen(i8*) #6

declare dso_local i32 @printf(i8*, ...) #1

; Function Attrs: noinline uwtable
define internal void @_GLOBAL__sub_I_588.cpp() #0 section ".text.startup" {
  call void @__cxx_global_var_init()
  ret void
}


!llvm.module.flags = !{!0}
!llvm.ident = !{!1}

!0 = !{i32 1, !"wchar_size", i32 4}
!1 = !{!"clang version 10.0.0-4ubuntu1 "}
