; ModuleID = 'source-C-CXX/36/588.cpp'
source_filename = "source-C-CXX/36/588.cpp"
target datalayout = "e-m:e-p270:32:32-p271:32:32-p272:64:64-i64:64-f80:128-n8:16:32:64-S128"
target triple = "x86_64-pc-linux-gnu"

%"class.std::ios_base::Init" = type { i8 }

@_ZStL8__ioinit = internal global %"class.std::ios_base::Init" zeroinitializer, align 1
@__dso_handle = external hidden global i8
@.str = private unnamed_addr constant [3 x i8] c"%d\00", align 1
@.str.1 = private unnamed_addr constant [3 x i8] c"%s\00", align 1
@.str.2 = private unnamed_addr constant [4 x i8] c"%c\0A\00", align 1
@llvm.global_ctors = appending global [1 x { i32, void ()*, i8* }] [{ i32, void ()*, i8* } { i32 65535, void ()* @_GLOBAL__sub_I_588.cpp, i8* null }]
@str = private unnamed_addr constant [3 x i8] c"no\00", align 1

declare void @_ZNSt8ios_base4InitC1Ev(%"class.std::ios_base::Init"* nonnull align 1 dereferenceable(1)) unnamed_addr #0

; Function Attrs: nounwind
declare void @_ZNSt8ios_base4InitD1Ev(%"class.std::ios_base::Init"* nonnull align 1 dereferenceable(1)) unnamed_addr #1

; Function Attrs: nofree nounwind
declare i32 @__cxa_atexit(void (i8*)*, i8*, i8*) local_unnamed_addr #2

; Function Attrs: mustprogress nofree norecurse nounwind sspstrong uwtable
define dso_local i32 @main() local_unnamed_addr #3 {
  %1 = alloca i32, align 4
  %2 = alloca [26 x i32], align 16
  %3 = alloca [1000001 x i8], align 16
  %4 = bitcast i32* %1 to i8*
  call void @llvm.lifetime.start.p0i8(i64 4, i8* nonnull %4) #9
  %5 = call i32 (i8*, ...) @__isoc99_scanf(i8* getelementptr inbounds ([3 x i8], [3 x i8]* @.str, i64 0, i64 0), i32* nonnull %1)
  %6 = bitcast [26 x i32]* %2 to i8*
  %7 = getelementptr inbounds [1000001 x i8], [1000001 x i8]* %3, i64 0, i64 0
  %8 = load i32, i32* %1, align 4, !tbaa !5
  %9 = icmp sgt i32 %8, 0
  br i1 %9, label %11, label %10

10:                                               ; preds = %81, %0
  call void @llvm.lifetime.end.p0i8(i64 4, i8* nonnull %4) #9
  ret i32 0

11:                                               ; preds = %0, %81
  %12 = phi i32 [ %82, %81 ], [ 0, %0 ]
  call void @llvm.lifetime.start.p0i8(i64 104, i8* nonnull %6) #9
  call void @llvm.memset.p0i8.i64(i8* noundef nonnull align 16 dereferenceable(104) %6, i8 0, i64 104, i1 false)
  call void @llvm.lifetime.start.p0i8(i64 1000001, i8* nonnull %7) #9
  %13 = call i32 (i8*, ...) @__isoc99_scanf(i8* getelementptr inbounds ([3 x i8], [3 x i8]* @.str.1, i64 0, i64 0), i8* nonnull %7)
  %14 = call i64 @strlen(i8* noundef nonnull %7) #10
  %15 = trunc i64 %14 to i32
  %16 = icmp sgt i32 %15, 0
  br i1 %16, label %17, label %76

17:                                               ; preds = %11
  %18 = and i64 %14, 4294967295
  %19 = and i64 %14, 1
  %20 = icmp eq i64 %18, 1
  br i1 %20, label %23, label %21

21:                                               ; preds = %17
  %22 = sub nsw i64 %18, %19
  br label %37

23:                                               ; preds = %37, %17
  %24 = phi i64 [ 0, %17 ], [ %55, %37 ]
  %25 = icmp eq i64 %19, 0
  br i1 %25, label %34, label %26

26:                                               ; preds = %23
  %27 = getelementptr inbounds [1000001 x i8], [1000001 x i8]* %3, i64 0, i64 %24
  %28 = load i8, i8* %27, align 1, !tbaa !9
  %29 = sext i8 %28 to i64
  %30 = add nsw i64 %29, -97
  %31 = getelementptr inbounds [26 x i32], [26 x i32]* %2, i64 0, i64 %30
  %32 = load i32, i32* %31, align 4, !tbaa !5
  %33 = add nsw i32 %32, 1
  store i32 %33, i32* %31, align 4, !tbaa !5
  br label %34

34:                                               ; preds = %23, %26
  br i1 %16, label %35, label %76

35:                                               ; preds = %34
  %36 = and i64 %14, 4294967295
  br label %58

37:                                               ; preds = %37, %21
  %38 = phi i64 [ 0, %21 ], [ %55, %37 ]
  %39 = phi i64 [ %22, %21 ], [ %56, %37 ]
  %40 = getelementptr inbounds [1000001 x i8], [1000001 x i8]* %3, i64 0, i64 %38
  %41 = load i8, i8* %40, align 2, !tbaa !9
  %42 = sext i8 %41 to i64
  %43 = add nsw i64 %42, -97
  %44 = getelementptr inbounds [26 x i32], [26 x i32]* %2, i64 0, i64 %43
  %45 = load i32, i32* %44, align 4, !tbaa !5
  %46 = add nsw i32 %45, 1
  store i32 %46, i32* %44, align 4, !tbaa !5
  %47 = or i64 %38, 1
  %48 = getelementptr inbounds [1000001 x i8], [1000001 x i8]* %3, i64 0, i64 %47
  %49 = load i8, i8* %48, align 1, !tbaa !9
  %50 = sext i8 %49 to i64
  %51 = add nsw i64 %50, -97
  %52 = getelementptr inbounds [26 x i32], [26 x i32]* %2, i64 0, i64 %51
  %53 = load i32, i32* %52, align 4, !tbaa !5
  %54 = add nsw i32 %53, 1
  store i32 %54, i32* %52, align 4, !tbaa !5
  %55 = add nuw nsw i64 %38, 2
  %56 = add i64 %39, -2
  %57 = icmp eq i64 %56, 0
  br i1 %57, label %23, label %37, !llvm.loop !10

58:                                               ; preds = %35, %71
  %59 = phi i64 [ 0, %35 ], [ %72, %71 ]
  %60 = getelementptr inbounds [1000001 x i8], [1000001 x i8]* %3, i64 0, i64 %59
  %61 = load i8, i8* %60, align 1, !tbaa !9
  %62 = sext i8 %61 to i64
  %63 = add nsw i64 %62, -97
  %64 = getelementptr inbounds [26 x i32], [26 x i32]* %2, i64 0, i64 %63
  %65 = load i32, i32* %64, align 4, !tbaa !5
  %66 = icmp eq i32 %65, 1
  br i1 %66, label %67, label %71

67:                                               ; preds = %58
  %68 = trunc i64 %59 to i32
  %69 = sext i8 %61 to i32
  %70 = call i32 (i8*, ...) @printf(i8* nonnull dereferenceable(1) getelementptr inbounds ([4 x i8], [4 x i8]* @.str.2, i64 0, i64 0), i32 %69)
  br label %76

71:                                               ; preds = %58
  %72 = add nuw nsw i64 %59, 1
  %73 = icmp eq i64 %72, %36
  br i1 %73, label %74, label %58, !llvm.loop !12

74:                                               ; preds = %71
  %75 = trunc i64 %14 to i32
  br label %76

76:                                               ; preds = %11, %74, %34, %67
  %77 = phi i32 [ %68, %67 ], [ 0, %34 ], [ %75, %74 ], [ 0, %11 ]
  %78 = icmp eq i32 %77, %15
  br i1 %78, label %79, label %81

79:                                               ; preds = %76
  %80 = call i32 @puts(i8* nonnull dereferenceable(1) getelementptr inbounds ([3 x i8], [3 x i8]* @str, i64 0, i64 0))
  br label %81

81:                                               ; preds = %79, %76
  call void @llvm.lifetime.end.p0i8(i64 1000001, i8* nonnull %7) #9
  call void @llvm.lifetime.end.p0i8(i64 104, i8* nonnull %6) #9
  %82 = add nuw nsw i32 %12, 1
  %83 = load i32, i32* %1, align 4, !tbaa !5
  %84 = icmp slt i32 %82, %83
  br i1 %84, label %11, label %10, !llvm.loop !13
}

; Function Attrs: argmemonly mustprogress nofree nosync nounwind willreturn
declare void @llvm.lifetime.start.p0i8(i64 immarg, i8* nocapture) #4

; Function Attrs: nofree nounwind
declare noundef i32 @__isoc99_scanf(i8* nocapture noundef readonly, ...) local_unnamed_addr #5

; Function Attrs: argmemonly mustprogress nofree nounwind willreturn writeonly
declare void @llvm.memset.p0i8.i64(i8* nocapture writeonly, i8, i64, i1 immarg) #6

; Function Attrs: argmemonly mustprogress nofree nounwind readonly willreturn
declare i64 @strlen(i8* nocapture) local_unnamed_addr #7

; Function Attrs: nofree nounwind
declare noundef i32 @printf(i8* nocapture noundef readonly, ...) local_unnamed_addr #5

; Function Attrs: argmemonly mustprogress nofree nosync nounwind willreturn
declare void @llvm.lifetime.end.p0i8(i64 immarg, i8* nocapture) #4

; Function Attrs: sspstrong uwtable
define internal void @_GLOBAL__sub_I_588.cpp() #8 section ".text.startup" {
  tail call void @_ZNSt8ios_base4InitC1Ev(%"class.std::ios_base::Init"* nonnull align 1 dereferenceable(1) @_ZStL8__ioinit)
  %1 = tail call i32 @__cxa_atexit(void (i8*)* bitcast (void (%"class.std::ios_base::Init"*)* @_ZNSt8ios_base4InitD1Ev to void (i8*)*), i8* getelementptr inbounds (%"class.std::ios_base::Init", %"class.std::ios_base::Init"* @_ZStL8__ioinit, i64 0, i32 0), i8* nonnull @__dso_handle) #9
  ret void
}

; Function Attrs: nofree nounwind
declare noundef i32 @puts(i8* nocapture noundef readonly) local_unnamed_addr #2


!llvm.module.flags = !{!0, !1, !2, !3}
!llvm.ident = !{!4}

!0 = !{i32 1, !"wchar_size", i32 4}
!1 = !{i32 7, !"PIC Level", i32 2}
!2 = !{i32 7, !"PIE Level", i32 2}
!3 = !{i32 7, !"uwtable", i32 1}
!4 = !{!"clang version 13.0.0"}
!5 = !{!6, !6, i64 0}
!6 = !{!"int", !7, i64 0}
!7 = !{!"omnipotent char", !8, i64 0}
!8 = !{!"Simple C++ TBAA"}
!9 = !{!7, !7, i64 0}
!10 = distinct !{!10, !11}
!11 = !{!"llvm.loop.mustprogress"}
!12 = distinct !{!12, !11}
!13 = distinct !{!13, !11}
